; Function Attrs: mustprogress nofree norecurse nosync nounwind willreturn memory(argmem: readwrite) uwtable
define dso_local range(i64 -2147483648, 2147483648) i64 @pg_encoding_max_length_sql(ptr noundef captures(none) %0) local_unnamed_addr #7 {
  %2 = getelementptr inbounds nuw i8, ptr %0, i64 32
  %3 = load i64, ptr %2, align 8
  %4 = trunc i64 %3 to i32
  %or.cond = icmp ult i32 %4, 42
  br i1 %or.cond, label %5, label %10

5:                                                ; preds = %1
  %6 = and i64 %3, 63
  %7 = getelementptr inbounds nuw [0 x %struct.pg_wchar_tbl], ptr @pg_wchar_table, i64 0, i64 %6, i32 6
  %8 = load i32, ptr %7, align 8
  %9 = sext i32 %8 to i64
  br label %12

10:                                               ; preds = %1
  %11 = getelementptr inbounds nuw i8, ptr %0, i64 28
  store i8 1, ptr %11, align 4
  br label %12

12:                                               ; preds = %10, %5
  %.0 = phi i64 [ %9, %5 ], [ 0, %10 ]
  ret i64 %.0
}